target datalayout = "e-m:e-p270:32:32-p271:32:32-p272:64:64-i64:64-i128:128-f80:128-n8:16:32:64-S128"
target triple = "x86_64-pc-linux-gnu"

%class.TIntermNode = type { ptr, %"struct.glslang::TSourceLoc" }
%"struct.glslang::TSourceLoc" = type { ptr, i32, i32, i32 }
%"class.glslang::TIntermLoop" = type <{ %class.TIntermNode, ptr, ptr, ptr, i8, i8, i8, i8, i32, i32, i32, i32, i32, i32, [4 x i8] }>

@_ZTVN7glslang11TIntermLoopE = external unnamed_addr constant { [31 x ptr] }, align 8

; Function Attrs: mustprogress nounwind uwtable
define linkonce_odr void @_ZN7glslang10TSourceLoc4initEv(ptr noundef nonnull align 8 dereferenceable(24) %0) #0 comdat align 2 {
  %2 = alloca ptr, align 8
  store ptr %0, ptr %2, align 8
  %3 = load ptr, ptr %2, align 8
  %4 = getelementptr inbounds %"struct.glslang::TSourceLoc", ptr %3, i32 0, i32 0
  store ptr null, ptr %4, align 8
  %5 = getelementptr inbounds %"struct.glslang::TSourceLoc", ptr %3, i32 0, i32 1
  store i32 0, ptr %5, align 8
  %6 = getelementptr inbounds %"struct.glslang::TSourceLoc", ptr %3, i32 0, i32 2
  store i32 0, ptr %6, align 4
  %7 = getelementptr inbounds %"struct.glslang::TSourceLoc", ptr %3, i32 0, i32 3
  store i32 0, ptr %7, align 8
  ret void
}

; Function Attrs: mustprogress nounwind uwtable
define linkonce_odr void @_ZN11TIntermNodeC2Ev(ptr noundef nonnull align 8 dereferenceable(32) %0) unnamed_addr #0 comdat align 2 {
  %2 = alloca ptr, align 8
  store ptr %0, ptr %2, align 8
  %3 = load ptr, ptr %2, align 8
  store ptr getelementptr inbounds inrange(-16, 232) ({ [31 x ptr] }, ptr @_ZTV11TIntermNode, i32 0, i32 0, i32 2), ptr %3, align 8
  %4 = getelementptr inbounds %class.TIntermNode, ptr %3, i32 0, i32 1
  call void @_ZN7glslang10TSourceLoc4initEv(ptr noundef nonnull align 8 dereferenceable(24) %4)
  ret void
}

; Function Attrs: mustprogress nounwind uwtable
define linkonce_odr void @_ZN7glslang11TIntermLoopC2EP11TIntermNodePNS_12TIntermTypedES4_b(ptr noundef nonnull align 8 dereferenceable(84) %0, ptr noundef %1, ptr noundef %2, ptr noundef %3, i1 noundef zeroext %4) unnamed_addr #0 comdat align 2 {
  %6 = alloca ptr, align 8
  %7 = alloca ptr, align 8
  %8 = alloca ptr, align 8
  %9 = alloca ptr, align 8
  %10 = alloca i8, align 1
  store ptr %0, ptr %6, align 8
  store ptr %1, ptr %7, align 8
  store ptr %2, ptr %8, align 8
  store ptr %3, ptr %9, align 8
  %11 = zext i1 %4 to i8
  store i8 %11, ptr %10, align 1
  %12 = load ptr, ptr %6, align 8
  call void @_ZN11TIntermNodeC2Ev(ptr noundef nonnull align 8 dereferenceable(32) %12)
  store ptr getelementptr inbounds inrange(-16, 232) ({ [31 x ptr] }, ptr @_ZTVN7glslang11TIntermLoopE, i32 0, i32 0, i32 2), ptr %12, align 8
  %13 = getelementptr inbounds %"class.glslang::TIntermLoop", ptr %12, i32 0, i32 1
  %14 = load ptr, ptr %7, align 8
  store ptr %14, ptr %13, align 8
  %15 = getelementptr inbounds %"class.glslang::TIntermLoop", ptr %12, i32 0, i32 2
  %16 = load ptr, ptr %8, align 8
  store ptr %16, ptr %15, align 8
  %17 = getelementptr inbounds %"class.glslang::TIntermLoop", ptr %12, i32 0, i32 3
  %18 = load ptr, ptr %9, align 8
  store ptr %18, ptr %17, align 8
  %19 = getelementptr inbounds %"class.glslang::TIntermLoop", ptr %12, i32 0, i32 4
  %20 = load i8, ptr %10, align 1
  %21 = trunc i8 %20 to i1
  %22 = zext i1 %21 to i8
  store i8 %22, ptr %19, align 8
  %23 = getelementptr inbounds %"class.glslang::TIntermLoop", ptr %12, i32 0, i32 5
  store i8 0, ptr %23, align 1
  %24 = getelementptr inbounds %"class.glslang::TIntermLoop", ptr %12, i32 0, i32 6
  store i8 0, ptr %24, align 2
  %25 = getelementptr inbounds %"class.glslang::TIntermLoop", ptr %12, i32 0, i32 8
  store i32 0, ptr %25, align 4
  %26 = getelementptr inbounds %"class.glslang::TIntermLoop", ptr %12, i32 0, i32 9
  store i32 0, ptr %26, align 8
  %27 = getelementptr inbounds %"class.glslang::TIntermLoop", ptr %12, i32 0, i32 10
  store i32 -1, ptr %27, align 4
  %28 = getelementptr inbounds %"class.glslang::TIntermLoop", ptr %12, i32 0, i32 11
  store i32 1, ptr %28, align 8
  %29 = getelementptr inbounds %"class.glslang::TIntermLoop", ptr %12, i32 0, i32 12
  store i32 0, ptr %29, align 4
  %30 = getelementptr inbounds %"class.glslang::TIntermLoop", ptr %12, i32 0, i32 13
  store i32 0, ptr %30, align 8
  ret void
}

; Function Attrs: mustprogress nounwind uwtable
define linkonce_odr noundef ptr @_ZN11TIntermNodenwEm(i64 noundef %0) #0 comdat align 2 {
  %2 = alloca i64, align 8
  store i64 %0, ptr %2, align 8
  %3 = call noundef nonnull align 8 dereferenceable(96) ptr @_ZN7glslang22GetThreadPoolAllocatorEv()
  %4 = load i64, ptr %2, align 8
  %5 = call noundef ptr @_ZN7glslang14TPoolAllocator8allocateEm(ptr noundef nonnull align 8 dereferenceable(96) %3, i64 noundef %4)
  ret ptr %5
}

; Function Attrs: mustprogress nounwind uwtable
define noundef ptr @_ZN7glslang13TIntermediate7addLoopEP11TIntermNodePNS_12TIntermTypedES4_bRKNS_10TSourceLocE(ptr noundef nonnull align 8 dereferenceable(2024) %0, ptr noundef %1, ptr noundef %2, ptr noundef %3, i1 noundef zeroext %4, ptr noundef nonnull align 8 dereferenceable(24) %5) #0 align 2 {
  %7 = alloca ptr, align 8
  %8 = alloca ptr, align 8
  %9 = alloca ptr, align 8
  %10 = alloca ptr, align 8
  %11 = alloca i8, align 1
  %12 = alloca ptr, align 8
  %13 = alloca ptr, align 8
  store ptr %0, ptr %7, align 8
  store ptr %1, ptr %8, align 8
  store ptr %2, ptr %9, align 8
  store ptr %3, ptr %10, align 8
  %14 = zext i1 %4 to i8
  store i8 %14, ptr %11, align 1
  store ptr %5, ptr %12, align 8
  %15 = call noundef ptr @_ZN11TIntermNodenwEm(i64 noundef 88)
  %16 = load ptr, ptr %8, align 8
  %17 = load ptr, ptr %9, align 8
  %18 = load ptr, ptr %10, align 8
  %19 = load i8, ptr %11, align 1
  %20 = trunc i8 %19 to i1
  call void @_ZN7glslang11TIntermLoopC2EP11TIntermNodePNS_12TIntermTypedES4_b(ptr noundef nonnull align 8 dereferenceable(84) %15, ptr noundef %16, ptr noundef %17, ptr noundef %18, i1 noundef zeroext %20)
  store ptr %15, ptr %13, align 8
  %21 = load ptr, ptr %13, align 8
  %22 = load ptr, ptr %12, align 8
  %23 = load ptr, ptr %21, align 8
  %24 = getelementptr inbounds ptr, ptr %23, i64 1
  %25 = load ptr, ptr %24, align 8
  call void %25(ptr noundef nonnull align 8 dereferenceable(32) %21, ptr noundef nonnull align 8 dereferenceable(24) %22)
  %26 = load ptr, ptr %13, align 8
  ret ptr %26
}