; Function Attrs: mustprogress nounwind uwtable
define noundef ptr @_ZN7glslang13TIntermediate7addLoopEP11TIntermNodePNS_12TIntermTypedES4_bRKNS_10TSourceLocE(ptr nocapture noundef nonnull readnone align 8 dereferenceable(2024) %0, ptr noundef %1, ptr noundef %2, ptr noundef %3, i1 noundef zeroext %4, ptr noundef nonnull align 8 dereferenceable(24) %5) local_unnamed_addr #0 align 2 {
  %7 = tail call noundef nonnull align 8 dereferenceable(96) ptr @_ZN7glslang22GetThreadPoolAllocatorEv() #17
  %8 = tail call noundef ptr @_ZN7glslang14TPoolAllocator8allocateEm(ptr noundef nonnull align 8 dereferenceable(96) %7, i64 noundef 88) #17
  %9 = zext i1 %4 to i8
  %10 = getelementptr inbounds i8, ptr %8, i64 8
  tail call void @llvm.memset.p0.i64(ptr noundef nonnull align 8 dereferenceable(20) %10, i8 0, i64 20, i1 false)
  store ptr getelementptr inbounds inrange(-16, 232) (i8, ptr @_ZTVN7glslang11TIntermLoopE, i64 16), ptr %8, align 8
  %11 = getelementptr inbounds i8, ptr %8, i64 32
  store ptr %1, ptr %11, align 8
  %12 = getelementptr inbounds i8, ptr %8, i64 40
  store ptr %2, ptr %12, align 8
  %13 = getelementptr inbounds i8, ptr %8, i64 48
  store ptr %3, ptr %13, align 8
  %14 = getelementptr inbounds i8, ptr %8, i64 56
  store i8 %9, ptr %14, align 8
  %15 = getelementptr inbounds i8, ptr %8, i64 57
  store i8 0, ptr %15, align 1
  %16 = getelementptr inbounds i8, ptr %8, i64 58
  store i8 0, ptr %16, align 2
  %17 = getelementptr inbounds i8, ptr %8, i64 60
  store <4 x i32> <i32 0, i32 0, i32 -1, i32 1>, ptr %17, align 4
  %18 = getelementptr inbounds i8, ptr %8, i64 76
  store i32 0, ptr %18, align 4
  %19 = getelementptr inbounds i8, ptr %8, i64 80
  store i32 0, ptr %19, align 8
  %20 = load ptr, ptr getelementptr inbounds inrange(-24, 224) (i8, ptr @_ZTVN7glslang11TIntermLoopE, i64 24), align 8
  tail call void %20(ptr noundef nonnull align 8 dereferenceable(32) %8, ptr noundef nonnull align 8 dereferenceable(24) %5) #17
  ret ptr %8
}